; Function Attrs: nounwind uwtable
define internal fastcc i32 @make_named_capture_number_map(ptr noundef captures(none) %0, ptr noundef nonnull %1, ptr noundef nonnull %2) unnamed_addr #6 {
  %4 = load ptr, ptr %0, align 8, !tbaa !45
  %5 = load i32, ptr %4, align 8, !tbaa !20
  switch i32 %5, label %.critedge [
    i32 7, label %.preheader
    i32 8, label %.preheader
    i32 4, label %13
    i32 5, label %25
    i32 6, label %68
  ]

.preheader:                                       ; preds = %3, %3
  br label %6

6:                                                ; preds = %.preheader, %10
  %.075 = phi ptr [ %12, %10 ], [ %4, %.preheader ]
  %7 = getelementptr inbounds nuw i8, ptr %.075, i64 16
  %8 = tail call fastcc i32 @make_named_capture_number_map(ptr noundef nonnull %7, ptr noundef %1, ptr noundef %2)
  %9 = icmp sgt i32 %8, -1
  br i1 %9, label %10, label %common.ret104

10:                                               ; preds = %6
  %11 = getelementptr inbounds nuw i8, ptr %.075, i64 24
  %12 = load ptr, ptr %11, align 8, !tbaa !20
  %.not91 = icmp eq ptr %12, null
  br i1 %.not91, label %.critedge, label %6, !llvm.loop !252

13:                                               ; preds = %3
  %14 = getelementptr inbounds nuw i8, ptr %4, i64 16
  %15 = tail call fastcc i32 @make_named_capture_number_map(ptr noundef nonnull %14, ptr noundef %1, ptr noundef %2)
  %16 = icmp slt i32 %15, 0
  br i1 %16, label %common.ret104, label %17

17:                                               ; preds = %13
  %18 = icmp eq i32 %15, 1
  br i1 %18, label %19, label %.critedge

19:                                               ; preds = %17
  %20 = load ptr, ptr %14, align 8, !tbaa !45
  %21 = load i32, ptr %20, align 8, !tbaa !20
  %22 = icmp eq i32 %21, 4
  br i1 %22, label %23, label %.critedge

23:                                               ; preds = %19
  %24 = tail call i32 @onig_reduce_nested_quantifier(ptr noundef nonnull %4) #22
  br label %common.ret104

25:                                               ; preds = %3
  %26 = getelementptr inbounds nuw i8, ptr %4, i64 24
  %27 = load i32, ptr %26, align 8, !tbaa !98
  switch i32 %27, label %64 [
    i32 0, label %28
    i32 3, label %48
  ]

28:                                               ; preds = %25
  %29 = getelementptr inbounds nuw i8, ptr %4, i64 4
  %30 = load i32, ptr %29, align 4, !tbaa !20
  %31 = and i32 %30, 512
  %.not90 = icmp eq i32 %31, 0
  br i1 %.not90, label %43, label %32

32:                                               ; preds = %28
  %33 = load i32, ptr %2, align 4, !tbaa !4
  %34 = add nsw i32 %33, 1
  store i32 %34, ptr %2, align 4, !tbaa !4
  %35 = getelementptr inbounds nuw i8, ptr %4, i64 32
  %36 = load i32, ptr %35, align 8, !tbaa !20
  %37 = sext i32 %36 to i64
  %38 = getelementptr inbounds %struct.GroupNumMap, ptr %1, i64 %37
  store i32 %34, ptr %38, align 4, !tbaa !197
  %39 = load i32, ptr %2, align 4, !tbaa !4
  store i32 %39, ptr %35, align 8, !tbaa !20
  %40 = getelementptr inbounds nuw i8, ptr %4, i64 16
  %41 = tail call fastcc i32 @make_named_capture_number_map(ptr noundef nonnull %40, ptr noundef %1, ptr noundef %2)
  %42 = icmp slt i32 %41, 0
  br i1 %42, label %common.ret104, label %.critedge

common.ret104:                                    ; preds = %64, %61, %55, %48, %32, %23, %13, %71, %.critedge, %6, %43
  %common.ret104.op = phi i32 [ %., %43 ], [ 0, %.critedge ], [ %72, %71 ], [ %24, %23 ], [ %15, %13 ], [ %66, %64 ], [ %62, %61 ], [ %56, %55 ], [ %50, %48 ], [ %41, %32 ], [ %8, %6 ]
  ret i32 %common.ret104.op

43:                                               ; preds = %28
  %44 = getelementptr inbounds nuw i8, ptr %4, i64 16
  %45 = load ptr, ptr %44, align 8, !tbaa !20
  store ptr %45, ptr %0, align 8, !tbaa !45
  store ptr null, ptr %44, align 8, !tbaa !20
  tail call void @onig_node_free(ptr noundef nonnull %4) #22
  %46 = tail call fastcc i32 @make_named_capture_number_map(ptr noundef nonnull %0, ptr noundef %1, ptr noundef %2)
  %47 = icmp slt i32 %46, 0
  %. = select i1 %47, i32 %46, i32 1
  br label %common.ret104

48:                                               ; preds = %25
  %49 = getelementptr inbounds nuw i8, ptr %4, i64 16
  %50 = tail call fastcc i32 @make_named_capture_number_map(ptr noundef nonnull %49, ptr noundef %1, ptr noundef %2)
  %51 = icmp slt i32 %50, 0
  br i1 %51, label %common.ret104, label %52

52:                                               ; preds = %48
  %53 = getelementptr inbounds nuw i8, ptr %4, i64 32
  %54 = load ptr, ptr %53, align 8, !tbaa !20
  %.not88 = icmp eq ptr %54, null
  br i1 %.not88, label %58, label %55

55:                                               ; preds = %52
  %56 = tail call fastcc i32 @make_named_capture_number_map(ptr noundef nonnull %53, ptr noundef %1, ptr noundef %2)
  %57 = icmp slt i32 %56, 0
  br i1 %57, label %common.ret104, label %58

58:                                               ; preds = %55, %52
  %59 = getelementptr inbounds nuw i8, ptr %4, i64 40
  %60 = load ptr, ptr %59, align 8, !tbaa !20
  %.not89 = icmp eq ptr %60, null
  br i1 %.not89, label %.critedge, label %61

61:                                               ; preds = %58
  %62 = tail call fastcc i32 @make_named_capture_number_map(ptr noundef nonnull %59, ptr noundef %1, ptr noundef %2)
  %63 = icmp slt i32 %62, 0
  br i1 %63, label %common.ret104, label %.critedge

64:                                               ; preds = %25
  %65 = getelementptr inbounds nuw i8, ptr %4, i64 16
  %66 = tail call fastcc i32 @make_named_capture_number_map(ptr noundef nonnull %65, ptr noundef %1, ptr noundef %2)
  %67 = icmp slt i32 %66, 0
  br i1 %67, label %common.ret104, label %.critedge

68:                                               ; preds = %3
  %69 = getelementptr inbounds nuw i8, ptr %4, i64 16
  %70 = load ptr, ptr %69, align 8, !tbaa !20
  %.not = icmp eq ptr %70, null
  br i1 %.not, label %.critedge, label %71

71:                                               ; preds = %68
  %72 = tail call fastcc i32 @make_named_capture_number_map(ptr noundef nonnull %69, ptr noundef %1, ptr noundef %2)
  %73 = icmp slt i32 %72, 0
  br i1 %73, label %common.ret104, label %.critedge

.critedge:                                        ; preds = %10, %17, %19, %61, %58, %64, %32, %3, %68, %71
  br label %common.ret104
}